(ikeras_frcnn.config
Config
p0
(dp1
S'use_vertical_flips'
p2
I00
sS'verbose'
p3
I01
sS'classifier_regr_std'
p4
(lp5
F8.0
aF8.0
aF4.0
aF4.0
asS'classifier_min_overlap'
p6
F0.1
sS'rot_90'
p7
I00
sS'class_mapping'
p8
(dp9
S'42'
p10
I41
sS'24'
p11
I25
sS'25'
p12
I11
sS'26'
p13
I21
sS'27'
p14
I14
sS'20'
p15
I27
sS'21'
p16
I7
sS'22'
p17
I40
sS'23'
p18
I13
sS'28'
p19
I18
sS'29'
p20
I28
sS'40'
p21
I1
sS'41'
p22
I38
sS'1'
p23
I10
sS'0'
p24
I24
sS'3'
p25
I36
sS'2'
p26
I8
sS'5'
p27
I32
sS'4'
p28
I5
sS'7'
p29
I37
sS'6'
p30
I29
sS'9'
p31
I6
sS'8'
p32
I31
sS'bg'
p33
I43
sS'39'
p34
I4
sS'12'
p35
I9
sS'11'
p36
I0
sS'10'
p37
I30
sS'13'
p38
I3
sS'38'
p39
I2
sS'15'
p40
I16
sS'14'
p41
I26
sS'17'
p42
I35
sS'16'
p43
I33
sS'33'
p44
I17
sS'18'
p45
I19
sS'31'
p46
I39
sS'30'
p47
I12
sS'37'
p48
I22
sS'36'
p49
I20
sS'35'
p50
I15
sS'34'
p51
I23
sS'19'
p52
I34
sS'32'
p53
I42
ssS'use_horizontal_flips'
p54
I00
sS'rpn_max_overlap'
p55
F0.7
sS'network'
p56
S'simple'
p57
sS'img_channel_mean'
p58
(lp59
F103.939
aF116.779
aF123.68
asS'balanced_classes'
p60
I00
sS'anchor_box_ratios'
p61
(lp62
(lp63
I1
aI1
aasS'img_scaling_factor'
p64
F1.0
sS'rpn_stride'
p65
I4
sS'num_rois'
p66
I32
sS'base_net_weights'
p67
S''
p68
sS'anchor_box_scales'
p69
(lp70
I16
aI32
aI64
asS'rpn_min_overlap'
p71
F0.3
sS'model_path'
p72
S'simple_model_frcnn.hdf5'
p73
sS'classifier_max_overlap'
p74
F0.5
sS'std_scaling'
p75
F4.0
sS'im_size'
p76
I600
sb.